ccopy_reg
_reconstructor
p0
(cnetworkx.classes.graph
Graph
p1
c__builtin__
object
p2
Ntp3
Rp4
(dp5
S'adjlist_inner_dict_factory'
p6
c__builtin__
dict
p7
sS'node_dict_factory'
p8
g7
sS'edge_attr_dict_factory'
p9
g7
sS'_node'
p10
(dp11
Vshop
p12
(dp13
sVartwork
p14
(dp15
sVpaper
p16
(dp17
sVdough
p18
(dp19
sVblender
p20
(dp21
sVthumb
p22
(dp23
sVswab
p24
(dp25
sVpoint
p26
(dp27
sVbench
p28
(dp29
sVwindow
p30
(dp31
sVcircle
p32
(dp33
sVhat
p34
(dp35
sVskier
p36
(dp37
sVplate
p38
(dp39
sVwoman
p40
(dp41
sVstring
p42
(dp43
sVdessert
p44
(dp45
sVbear
p46
(dp47
sVcupcake
p48
(dp49
sVband
p50
(dp51
sVgiraffe
p52
(dp53
sVbackground
p54
(dp55
sVkitten
p56
(dp57
sVdoughnut
p58
(dp59
sVbanner
p60
(dp61
sVbread
p62
(dp63
sVchild
p64
(dp65
sVdrop
p66
(dp67
sVglove
p68
(dp69
sVpavement
p70
(dp71
sVnose
p72
(dp73
sVsidewalk
p74
(dp75
sVsteak
p76
(dp77
sVsquare
p78
(dp79
sVcrowd
p80
(dp81
sVfingernail
p82
(dp83
sVfish
p84
(dp85
sVtennis_racket
p86
(dp87
sVhair
p88
(dp89
sVzebra
p90
(dp91
sVlogo
p92
(dp93
sVwire
p94
(dp95
sVsand
p96
(dp97
sVcrosswalk
p98
(dp99
sVbird
p100
(dp101
sVpath
p102
(dp103
sVfabric
p104
(dp105
sVbox
p106
(dp107
sVbathtub
p108
(dp109
sVblazer
p110
(dp111
sVcow
p112
(dp113
sVfruit
p114
(dp115
sVpita
p116
(dp117
sVmouth
p118
(dp119
sVjersey
p120
(dp121
sVowl
p122
(dp123
sVsupply
p124
(dp125
sVwall
p126
(dp127
sVtalon
p128
(dp129
sVpole
p130
(dp131
sVduck
p132
(dp133
sVtable
p134
(dp135
sVhoof
p136
(dp137
sVsheep
p138
(dp139
sVhorse
p140
(dp141
sVeye
p142
(dp143
sVfence
p144
(dp145
sVjet
p146
(dp147
sVteddy
p148
(dp149
sVtail
p150
(dp151
sVpaint
p152
(dp153
sVthorax
p154
(dp155
sVhouse
p156
(dp157
sVbanana
p158
(dp159
sVhead
p160
(dp161
sVsoap_dispenser
p162
(dp163
sVdoor
p164
(dp165
sVbaseball_cap
p166
(dp167
sVplane
p168
(dp169
sVtiger
p170
(dp171
sVcomputer_game
p172
(dp173
sVbull
p174
(dp175
sVbaby
p176
(dp177
sVteapot
p178
(dp179
sVchurch
p180
(dp181
sVbatch
p182
(dp183
sVbed
p184
(dp185
sVcat
p186
(dp187
sVsoup
p188
(dp189
sVelbow
p190
(dp191
sVpiece
p192
(dp193
sVroot
p194
(dp195
sVpetal
p196
(dp197
sVbroth
p198
(dp199
sVplacemat
p200
(dp201
sVcarrot
p202
(dp203
sVlanding_gear
p204
(dp205
sVclothing
p206
(dp207
sVcadmium
p208
(dp209
sVshirt
p210
(dp211
sVshelf
p212
(dp213
sVtie
p214
(dp215
sVtopographic_point
p216
(dp217
sVpuppy
p218
(dp219
sVtopping
p220
(dp221
sVmale_child
p222
(dp223
sVtrack
p224
(dp225
sVspot
p226
(dp227
sVhand
p228
(dp229
sVslice
p230
(dp231
sVbridle
p232
(dp233
sVstripe
p234
(dp235
sVletter
p236
(dp237
sVbroccoli
p238
(dp239
sVstructure
p240
(dp241
sVman
p242
(dp243
sVneck
p244
(dp245
sVpotato
p246
(dp247
sVracetrack
p248
(dp249
sVface
p250
(dp251
sS'person'
p252
(dp253
sVtruck
p254
(dp255
sVroad
p256
(dp257
sVspectator
p258
(dp259
sVski_slope
p260
(dp261
sVegg
p262
(dp263
sVwing
p264
(dp265
sVdot
p266
(dp267
ssS'graph'
p268
(dp269
sS'nodes'
p270
g0
(cnetworkx.classes.reportviews
NodeView
p271
g2
Ntp272
Rp273
(dp274
S'_nodes'
p275
g11
sbsS'_adj'
p276
(dp277
g12
(dp278
g164
(dp279
S'predicate'
p280
Vhas
p281
sS'weight'
p282
I21
sssg14
(dp283
Vwall
p284
(dp285
g280
Von
p286
sg282
I28
sssg16
(dp287
Vtable
p288
(dp289
g280
Von
p290
sg282
I20
ssg58
(dp291
g280
Von
p292
sg282
I64
sssg18
(dp293
g38
(dp294
g280
Von
p295
sg282
I26
ssg246
(dp296
g280
Vsitting
p297
sg282
I26
sssg20
(dp298
Vbanana
p299
(dp300
g280
Vin
p301
sg282
I26
sssg22
(dp302
Vperson
p303
(dp304
g280
Vhas
p305
sg282
I57
sssg24
(dp306
Vbox
p307
(dp308
g280
Vin
p309
sg282
I27
sssg26
(dp310
Vplacemat
p311
(dp312
g280
Von
p313
sg282
I67
ssg104
(dp314
g280
Von
p315
sg282
I23
ssg210
(dp316
g280
Von
p317
sg282
I27
sssg28
(dp318
Vperson
p319
(dp320
g280
Vsitting
p321
sg282
I26
ssg180
(dp322
g280
Vin
p323
sg282
I21
sssg30
(dp324
Vjet
p325
(dp326
g280
Vhas
p327
sg282
I29
sssg32
(dp328
g150
(dp329
g280
Von
p330
sg282
I21
sssg34
(dp331
g266
(dp332
g280
Von
p333
sg282
I20
sssg36
(dp334
g160
(dp335
g280
Vhas
p336
sg282
I22
ssg258
(dp337
g280
Vwatching
p338
sg282
I22
sssg38
(dp339
g230
(dp340
g280
Von
p341
sg282
I28
ssg84
(dp342
g280
Von
p343
sg282
I34
ssg202
(dp344
g280
Von
p345
sg282
I26
ssg18
g294
sg254
(dp346
g280
Vhas
p347
sg282
I22
ssVdoughnut
p348
(dp349
g280
Von
p350
sg282
I20
ssg76
(dp351
g280
Von
p352
sg282
I26
ssg262
(dp353
g280
Von
p354
sg282
I27
ssg238
(dp355
g280
Von
p356
sg282
I38
sssg40
(dp357
g110
(dp358
g280
Vwearing
p359
sg282
I20
ssg244
(dp360
g280
Vhas
p361
sg282
I23
ssg144
(dp362
g280
Vbehind
p363
sg282
I25
sssg42
(dp364
g86
(dp365
g280
Vhas
p366
sg282
I24
ssVkitten
p367
(dp368
g280
Vplaying
p369
sg282
I135
sssg44
(dp370
g288
(dp371
g280
Von
p372
sg282
I25
sssg46
(dp373
Vstripe
p374
(dp375
g280
Von
p376
sg282
I21
ssVshirt
p377
(dp378
g280
Von
p379
sg282
I21
sssg48
(dp380
Vbox
p381
(dp382
g280
Vin
p383
sg282
I20
ssg220
(dp384
g280
Vhas
p385
sg282
I23
sssg50
(dp386
g90
(dp387
g280
Vhas
p388
sg282
I60
ssg120
(dp389
g280
Vhas
p390
sg282
I27
ssVcat
p391
(dp392
g280
Vhas
p393
sg282
I20
sssg52
(dp394
Vtopographic_point
p395
(dp396
g280
Von
p397
sg282
I25
ssg226
(dp398
g280
Von
p399
sg282
I62
sssg54
(dp400
Vsheep
p401
(dp402
g280
Vin
p403
sg282
I21
ssg156
(dp404
g280
Vin
p405
sg282
I21
ssg240
(dp406
g280
Vin
p407
sg282
I23
ssg134
(dp408
g280
Vin
p409
sg282
I23
sssg56
(dp410
g142
(dp411
g280
Vhas
p412
sg282
I50
ssg42
g368
ssg58
(dp413
g106
(dp414
g280
Vin
p415
sg282
I23
ssg38
g349
sg16
g291
sg212
(dp416
g280
Von
p417
sg282
I27
sssg60
(dp418
g130
(dp419
g280
Von
p420
sg282
I24
ssVcow
p421
(dp422
g280
Vwith
p423
sg282
I20
sssg62
(dp424
Vpiece
p425
(dp426
g280
Vof
p427
sg282
I36
sssg64
(dp428
g182
(dp429
g280
Vin
p430
sg282
I35
ssVcomputer_game
p431
(dp432
g280
Vplaying
p433
sg282
I164
sssg66
(dp434
g96
(dp435
g280
Vin
p436
sg282
I23
ssVbathtub
p437
(dp438
g280
Von
p439
sg282
I21
sssg68
(dp440
g228
(dp441
g280
Von
p442
sg282
I24
sssg70
(dp443
Vtopographic_point
p444
(dp445
g280
Von
p446
sg282
I31
sssg72
(dp447
Vbaby
p448
(dp449
g280
Vhas
p450
sg282
I37
ssVpuppy
p451
(dp452
g280
Vhas
p453
sg282
I23
ssg146
(dp454
g280
Vhas
p455
sg282
I47
ssg174
(dp456
g280
Vhas
p457
sg282
I25
sssg74
(dp458
g152
(dp459
g280
Von
p460
sg282
I27
ssVtopographic_point
p461
(dp462
g280
Von
p463
sg282
I23
sssg76
(dp464
g38
g351
ssg78
(dp465
Vwall
p466
(dp467
g280
Von
p468
sg282
I57
ssVpath
p469
(dp470
g280
Von
p471
sg282
I20
ssg164
(dp472
g280
Von
p473
sg282
I31
sssg80
(dp474
Vspectator
p475
(dp476
g280
Vin
p477
sg282
I20
sssg82
(dp478
Vperson
p479
(dp480
g280
Vhas
p481
sg282
I22
sssg84
(dp482
g38
g342
ssg86
(dp483
g42
g365
ssg88
(dp484
g160
(dp485
g280
Von
p486
sg282
I20
sssg90
(dp487
g50
g387
sg234
(dp488
g280
Von
p489
sg282
I23
sssg92
(dp490
Vletter
p491
(dp492
g280
Von
p493
sg282
I26
sssg94
(dp494
Vhouse
p495
(dp496
g280
Vabove
p497
sg282
I25
sssg96
(dp498
g66
g435
ssg98
(dp499
g374
(dp500
g280
Vin
p501
sg282
I21
sssg100
(dp502
g128
(dp503
g280
Vhas
p504
sg282
I24
ssg142
(dp505
g280
Vhas
p506
sg282
I20
ssg154
(dp507
g280
Vhas
p508
sg282
I23
sssg102
(dp509
g78
g470
ssg104
(dp510
g26
g314
ssg106
(dp511
g58
g414
sg48
g382
sg24
g308
ssg108
(dp512
g66
g438
sg242
(dp513
g280
Vin
p514
sg282
I31
sssg110
(dp515
g40
g358
ssg112
(dp516
g118
(dp517
g280
Vhas
p518
sg282
I26
ssVtopographic_point
p519
(dp520
g280
Von
p521
sg282
I20
ssg60
g422
ssg114
(dp522
g212
(dp523
g280
Von
p524
sg282
I22
sssg116
(dp525
Vpotato
p526
(dp527
g280
Von
p528
sg282
I23
sssg118
(dp529
g138
(dp530
g280
Vhas
p531
sg282
I28
ssg112
g517
sg186
(dp532
g280
Vhas
p533
sg282
I20
sssg120
(dp534
g50
g389
ssg122
(dp535
g142
(dp536
g280
Vhas
p537
sg282
I24
sssg124
(dp538
Vtable
p539
(dp540
g280
Von
p541
sg282
I20
sssg126
(dp542
g495
(dp543
g280
Vo
p544
sg282
I39
ssg162
(dp545
g280
Von
p546
sg282
I21
ssg78
g467
sg14
g285
ssg128
(dp547
g100
g503
ssg130
(dp548
g60
g419
sVstripe
p549
(dp550
g280
Von
p551
sg282
I21
sssg132
(dp552
g150
(dp553
g280
Vhas
p554
sg282
I20
ssg244
(dp555
g280
Vhas
p556
sg282
I31
sssg134
(dp557
g124
g540
sg44
g371
sg16
g289
sg208
(dp558
g280
Von
p559
sg282
I20
ssg54
g408
sVpetal
p560
(dp561
g280
Von
p562
sg282
I20
ssg178
(dp563
g280
Von
p564
sg282
I28
sssg136
(dp565
Vhorse
p566
(dp567
g280
Vhas
p568
sg282
I90
sssg138
(dp569
g118
g530
sg54
g402
ssg140
(dp570
g136
g567
sg160
(dp571
g280
Vhas
p572
sg282
I43
ssg232
(dp573
g280
Von
p574
sg282
I21
ssg244
(dp575
g280
Vhas
p576
sg282
I40
ssg142
(dp577
g280
Vhas
p578
sg282
I87
sssg142
(dp579
g122
g536
sg140
g577
sVperson
p580
(dp581
g280
Vhas
p582
sg282
I50
ssg100
g505
sg56
g411
ssg144
(dp583
g40
g362
ssg146
(dp584
g204
(dp585
g280
Vhas
p586
sg282
I24
ssg30
g326
sg72
g454
sg264
(dp587
g280
Vhas
p588
sg282
I36
sssg148
(dp589
g160
(dp590
g280
Vhas
p591
sg282
I47
sssg150
(dp592
g32
g329
sg132
g553
ssg152
(dp593
g74
g459
ssg154
(dp594
g100
g507
ssg156
(dp595
g126
g543
sg94
g496
sg54
g404
ssg158
(dp596
g216
(dp597
g280
Von
p598
sg282
I20
ssg192
(dp599
g280
Vof
p600
sg282
I30
ssg160
(dp601
g280
Von
p602
sg282
I21
ssg184
(dp603
g280
Von
p604
sg282
I22
ssg20
g300
ssg160
(dp605
g140
g571
sg148
g590
sg166
(dp606
g280
Von
p607
sg282
I35
ssg186
(dp608
g280
Vhas
p609
sg282
I28
ssg88
g485
sVperson
p610
(dp611
g280
Vhas
p612
sg282
I42
ssg176
(dp613
g280
Vhas
p614
sg282
I34
ssg158
g601
sg36
g335
ssg162
(dp615
g126
g545
ssg164
(dp616
g12
g279
sg78
g472
sg242
(dp617
g280
Vbehind
p618
sg282
I21
sssg166
(dp619
g160
g606
ssg168
(dp620
g264
(dp621
g280
Vhas
p622
sg282
I20
ssg236
(dp623
g280
Von
p624
sg282
I33
sssg170
(dp625
g252
(dp626
g280
Vphotographing
p627
sg282
I20
sssg172
(dp628
g242
(dp629
g280
Vplaying
p630
sg282
I27
ssg64
g432
ssg174
(dp631
g72
g456
ssg176
(dp632
g160
g613
sg72
g449
ssg178
(dp633
g134
g563
ssg180
(dp634
g28
g322
ssg182
(dp635
g64
g429
ssg184
(dp636
g158
g603
ssg186
(dp637
g50
g392
sg160
g608
sg118
g532
ssg188
(dp638
Vcarrot
p639
(dp640
g280
Vin
p641
sg282
I44
sssg190
(dp642
Vperson
p643
(dp644
g280
Vhas
p645
sg282
I36
ssVmale_child
p646
(dp647
g280
Vhas
p648
sg282
I20
sssg192
(dp649
g299
g599
sg62
g426
ssg194
(dp650
Vbroccoli
p651
(dp652
g280
Vhas
p653
sg282
I21
sssg196
(dp654
g134
g561
ssg198
(dp655
Vcarrot
p656
(dp657
g280
Vin
p658
sg282
I45
sssg200
(dp659
g26
g312
ssg202
(dp660
g38
g344
sg198
g657
sg188
g640
ssg204
(dp661
g146
g585
ssg206
(dp662
g236
(dp663
g280
Von
p664
sg282
I25
sssg208
(dp665
g134
g558
ssg210
(dp666
g46
g378
sg26
g316
ssg212
(dp667
g58
g416
sg114
g523
ssg214
(dp668
g224
(dp669
g280
Von
p670
sg282
I45
ssVstripe
p671
(dp672
g280
Von
p673
sg282
I23
sssg216
(dp674
g112
g520
sg250
(dp675
g280
Vhas
p676
sg282
I23
ssg70
g445
sg52
g396
sg74
g462
sg158
g597
ssg218
(dp677
g72
g452
ssg220
(dp678
Vtopping
p679
(dp680
g280
Vnext
p681
sg282
I25
ssg48
g384
ssg222
(dp682
g190
g647
ssg224
(dp683
g214
g669
ssg226
(dp684
g52
g398
ssg228
(dp685
Vperson
p686
(dp687
g280
Vhas
p688
sg282
I20
ssg68
g441
ssg230
(dp689
g38
g340
ssg232
(dp690
Vhorse
p691
g573
ssg234
(dp692
g130
g550
sg214
g672
sg98
g500
sg90
g488
sg46
g375
ssg236
(dp693
g92
g492
sg168
g623
sg206
g663
sg256
(dp694
g280
Von
p695
sg282
I20
sssg238
(dp696
g38
g355
sg194
g652
ssg240
(dp697
g54
g406
ssg242
(dp698
g108
g513
sg164
g617
sg172
g629
sg266
(dp699
g280
Von
p700
sg282
I40
sssg244
(dp701
g140
g575
sg40
g360
sg132
g555
ssg246
(dp702
g116
g527
sg18
g296
ssg248
(dp703
g252
(dp704
g280
Vwalking
p705
sg282
I20
sssg250
(dp706
g216
g675
ssg252
(dp707
g160
g611
sg142
g581
sg22
g304
sg82
g480
sg248
g704
sg28
g320
sg170
g626
sg190
g644
sg260
(dp708
g280
Von
p709
sg282
I34
ssg228
g687
ssg254
(dp710
g38
g346
ssg256
(dp711
g236
g694
ssg258
(dp712
g80
g476
sg36
g337
ssg260
(dp713
g252
g708
ssg262
(dp714
g38
g353
ssg264
(dp715
g168
g621
sg146
g587
ssg266
(dp716
g34
g332
sg242
g699
sssS'adjlist_outer_dict_factory'
p717
g7
sb.